                ;~~~~~~~~~~~~~~~~~~~~~~~~~~~~~~~~~~~~~~~~~~~~~~~~~~~~~~~~~~~~~~~~~~~~~~~~~~~~~~~
                ;~~  [MyCA] Macro Cross Assembler V1.0 for MyCPU, (c) 2015 by Dennis Kuschel  ~~
                ;~~~~~~~~~~~~~~~~~~~~~~~~~~~~~~~~~~~~~~~~~~~~~~~~~~~~~~~~~~~~~~~~~~~~~~~~~~~~~~~

                ;[File: C:\Users\Robin\Desktop\MyCPU\software\asm\dcf77_test.asm]
                ;[ASCII]
                ;******************************************
                ;****  DCF77 Library - Test program *******
                ;******************************************
                ;******  by Robin Tönniges (2016)  ********
                ;******************************************
                
                ;***********************************************
                ;*Parameter:
                ;*Nothing = Set system clock with DCF77 - Data
                ;*Number 1-7 = Display data set 1-7 from the library
                ;*Number 8 = Display current time and date
                ;*
                ;*
                ;*
                ;***********************************************
                
                ;Include
                ;[File: D:\Program Files (x86)\myca\include\program.hsm]
                ;[ASCII]
                
                ORG 8000h
    8000 0280    DW 8002h
    8002 5B80    DW main
    8004 0000    DW 0
    8006 5B80    DW codestart
                
                ;[File: C:\Users\Robin\Desktop\MyCPU\software\asm\dcf77_test.asm]
                ;[File: D:\Program Files (x86)\myca\include\ctype.hsm]
                ;[ASCII]
                
                KERN_ISPRINTABLE    EQU 024Eh
                KERN_ISCTRLCHAR     EQU 0250h
                KERN_ISALPHA        EQU 0252h
                KERN_ISDIGIT        EQU 0254h
                KERN_ASCIIPETSCII   EQU 0256h
                KERN_STRING2NUMBER  EQU 0262h
                
                ;[File: C:\Users\Robin\Desktop\MyCPU\software\asm\dcf77_test.asm]
                ;[File: D:\Program Files (x86)\myca\include\conio.hsm]
                ;[ASCII]
                
                ;-- functions --
                KERN_KBHIT          EQU 023Ah
                KERN_GETCH          EQU 023Ch
                KERN_UNGETCH        EQU 023Eh
                KERN_TESTCTRLC      EQU 0240h
                KERN_PRINTCHAR      EQU 0242h
                KERN_PRINTSTR       EQU 0244h
                KERN_PRINTSTRR      EQU 0246h
                KERN_GETCRSRPOS     EQU 0248h
                KERN_GETSCREENSIZE  EQU 024Ah
                KERN_GETFREELINES   EQU 024Ch
                KERN_INPUT          EQU 0258h
                KERN_PRINTHEX       EQU 025Eh
                KERN_PRINTDEZ       EQU 0260h
                KERN_SETCONSOLE     EQU 022Ch
                KERN_GSTERMINAL     EQU 02A0h
                KERN_QUOTEMODE      EQU 02E6h
                KERN_GSSTDOUTVECT   EQU 02D4h
                KERN_SETINPSPVECT   EQU 025Ah
                KERN_SETINPUTMODE   EQU 025Ch
                
                ;-- flag definitions --
                CON_DISP_LCD        SET 01h
                CON_DISP_SCREEN     SET 02h
                CON_DISP_TTY        SET 03h
                CON_DISP_TTYSCR     SET 04h
                CON_DISP_NONE       SET 0Fh
                CON_KEYB_KEYB       SET 10h
                CON_KEYB_TTY        SET 20h
                CON_KEYB_NONE       SET 0F0h
                INPMODE_BASIC       SET 0
                INPMODE_BASICRUN    SET 1
                INPMODE_KERNALSHELL SET 2
                INPUTFLAG_HISTORY   SET 01h
                INPUTFLAG_SIZE      SET 02h
                INPUTFLAG_QUOTE     SET 04h
                INPUTFLAG_LINE80    SET 08h
                INPUTFLAG_TABKEY    SET 10h
                INPUTFLAG_NOBORDER  SET 20h
                
                ;[File: C:\Users\Robin\Desktop\MyCPU\software\asm\dcf77_test.asm]
                ;[File: D:\Program Files (x86)\myca\include\time.hsm]
                ;[ASCII]
                
                KERN_GETSETTIME     EQU 029Ah
                KERN_GETSETDATE     EQU 029Ch
                
                KERN_INSDELTIMER    EQU 02AAh
                
                ;[File: C:\Users\Robin\Desktop\MyCPU\software\asm\dcf77_test.asm]
                ;[File: D:\Program Files (x86)\myca\include\code.hsm]
                ;[ASCII]
                
                KERN_ADAPTOPCODES   EQU 02C4h
                KERN_EXECUTEFILE    EQU 02BEh
                KERN_EXITTSR        EQU 02C2h
                KERN_KILLPROGRAM    EQU 02C0h
                KERN_KILLPROGEX     EQU 0328h
                KERN_SPECROMCALL    EQU 02B6h
                KERN_CALLFROMROM    EQU 02B8h
                KERN_CALLROM        EQU 02BAh
                KERN_LIBCALL        EQU 02CAh
                KERN_LIBSELECT      EQU 02CCh
                KERN_LIBDESELECT    EQU 02CEh
                KERN_LIBUNLOAD      EQU 02D0h
                KERN_ISLOADED       EQU 02D2h
                KERN_ASSERT         EQU 0326h
                
                REG_ROMPAGE  SET 3900h
                
                ;[File: C:\Users\Robin\Desktop\MyCPU\software\asm\dcf77_test.asm]
                ;Declare variables
                DCF77LIB        EQU 60h
                
                ZP_paramPtr     EQU 00h
                
    8008 D35953 STR_done        DB "System clock successfully set!",0
    800B 54454D 
    800E 20434C 
    8011 4F434B 
    8014 205355 
    8017 434345 
    801A 535346 
    801D 554C4C 
    8020 592053 
    8023 455421 
    8026 00     
    8027 D24543 STR_fault       DB "Receiver not synchronized or data incomplete!",0
    802A 454956 
    802D 455220 
    8030 4E4F54 
    8033 205359 
    8036 4E4348 
    8039 524F4E 
    803C 495A45 
    803F 44204F 
    8042 522044 
    8045 415441 
    8048 20494E 
    804B 434F4D 
    804E 504C45 
    8051 544521 
    8054 00     
                
    8055 00     VAR_seconds     DB 0
    8056 00     VAR_minutes     DB 0
    8057 00     VAR_hours       DB 0
    8058 00     VAR_day         DB 0
    8059 00     VAR_month       DB 0
    805A 00     VAR_year        DB 0
                
                ;Program start
                codestart
                
                main    
    805B 3C00           FLG ZP_paramPtr
                
    805D EA     skipPar LPA
    805E 198F80         JPZ setSysTime
    8061 7020           CMP #20h
    8063 185D80         JNZ skipPar
                
    8066 6F00   _skp0   SPT ZP_paramPtr
    8068 EA             LPA
    8069 198F80         JPZ setSysTime
    806C 7020           CMP #20h
    806E 196680         JPZ _skp0
                
    8071 5F00           LPT ZP_paramPtr
    8073 1B6202         JSR (KERN_STRING2NUMBER)
    8076 7008           CMP #8
    8078 19F880         JPZ printTime
    807B 08             PHA   
                
    807C 3060           LDA #DCF77LIB
    807E 1BCC02         JSR  (KERN_LIBSELECT)        
    8081 0C             PLA
    8082 1BCA02         JSR (KERN_LIBCALL)
    8085 178581         JPC printFault
    8088 2D             CLX
    8089 2E             CLY
    808A 1B6002         JSR (KERN_PRINTDEZ)
    808D 2C             CLA
    808E 1F             RTS
                
                setSysTime
    808F 3060           LDA #DCF77LIB
    8091 1BCC02         JSR  (KERN_LIBSELECT) 
    8094 3001           LDA #1 ;Seconds
    8096 1BCA02         JSR (KERN_LIBCALL)
    8099 178581         JPC printFault
    809C 425580         STAA VAR_seconds
    809F 3002           LDA #2 ;Minutes
    80A1 1BCA02         JSR (KERN_LIBCALL)
    80A4 178581         JPC printFault
    80A7 425680         STAA VAR_minutes
    80AA 3003           LDA #3 ;Hours
    80AC 1BCA02         JSR (KERN_LIBCALL)
    80AF 178581         JPC printFault
    80B2 425780         STAA VAR_hours
    80B5 3004           LDA #4 ;Day
    80B7 1BCA02         JSR (KERN_LIBCALL)
    80BA 178581         JPC printFault
    80BD 425880         STAA VAR_day
    80C0 3006           LDA #6 ;Month
    80C2 1BCA02         JSR (KERN_LIBCALL)
    80C5 178581         JPC printFault
    80C8 425980         STAA VAR_month
    80CB 3007           LDA #7 ;Year
    80CD 1BCA02         JSR (KERN_LIBCALL)
    80D0 178581         JPC printFault
    80D3 425A80         STAA VAR_year
                
                        ;Set system clock
    80D6 325780         LDAA VAR_hours
    80D9 525680         LDXA VAR_minutes
    80DC 595580         LDYA VAR_seconds
    80DF 05             SEC
    80E0 1B9A02         JSR (KERN_GETSETTIME)
                
    80E3 325880         LDAA VAR_day
    80E6 525980         LDXA VAR_month
    80E9 595A80         LDYA VAR_year
    80EC 05             SEC
    80ED 1B9C02         JSR (KERN_GETSETDATE)
                
    80F0 6C0880         LPT #STR_done
    80F3 1B4402         JSR (KERN_PRINTSTR)
    80F6 2C             CLA
    80F7 1F             RTS
                
                printTime
    80F8 3060           LDA #DCF77LIB
    80FA 1BCC02         JSR  (KERN_LIBSELECT) 
    80FD 3003           LDA #3 ;Hours
    80FF 1BCA02         JSR (KERN_LIBCALL)
    8102 178581         JPC printFault
    8105 1A7581         JSR leadingZero
    8108 2D             CLX
    8109 2E             CLY
    810A 1B6002         JSR (KERN_PRINTDEZ)
    810D 303A           LDA #':'
    810F 1B4202         JSR (KERN_PRINTCHAR)
    8112 3002           LDA #2 ;Minutes
    8114 1BCA02         JSR (KERN_LIBCALL)
    8117 178581         JPC printFault
    811A 1A7581         JSR leadingZero
    811D 2D             CLX
    811E 2E             CLY
    811F 1B6002         JSR (KERN_PRINTDEZ)
    8122 303A           LDA #':'
    8124 1B4202         JSR (KERN_PRINTCHAR)
    8127 3001           LDA #1 ;Seconds
    8129 1BCA02         JSR (KERN_LIBCALL)
    812C 178581         JPC printFault
    812F 1A7581         JSR leadingZero
    8132 2D             CLX
    8133 2E             CLY
    8134 1B6002         JSR (KERN_PRINTDEZ)
    8137 300D           LDA #13
    8139 1B4202         JSR (KERN_PRINTCHAR)
    813C 3004           LDA #4 ;Day
    813E 1BCA02         JSR (KERN_LIBCALL)
    8141 178581         JPC printFault
    8144 1A7581         JSR leadingZero
    8147 2D             CLX
    8148 2E             CLY
    8149 1B6002         JSR (KERN_PRINTDEZ)
    814C 302E           LDA #'.'
    814E 1B4202         JSR (KERN_PRINTCHAR)
    8151 3006           LDA #6 ;Month
    8153 1BCA02         JSR (KERN_LIBCALL)
    8156 178581         JPC printFault
    8159 1A7581         JSR leadingZero
    815C 2D             CLX
    815D 2E             CLY
    815E 1B6002         JSR (KERN_PRINTDEZ)
    8161 302E           LDA #'.'
    8163 1B4202         JSR (KERN_PRINTCHAR)
    8166 3007           LDA #7 ;Year
    8168 1BCA02         JSR (KERN_LIBCALL)
    816B 178581         JPC printFault
    816E 2D             CLX
    816F 2E             CLY
    8170 1B6002         JSR (KERN_PRINTDEZ)
    8173 2C             CLA
    8174 1F             RTS
                
                leadingZero
    8175 08             PHA
    8176 04             CLC
    8177 9009           SBC #9
    8179 178381         JPC lz_0 
    817C 3030           LDA #'0'
    817E 1B4202         JSR (KERN_PRINTCHAR)
    8181 0C             PLA ;<10
    8182 1F             RTS
    8183 0C     lz_0    PLA ;>9
    8184 1F             RTS
                
                printFault
    8185 6C2780         LPT #STR_fault
    8188 1B4402         JSR (KERN_PRINTSTR)
                
    818B 2C     _RTS    CLA
    818C 1F             RTS
                


Segment Table:
**************
Segment Name                 Startaddr  Endaddr     Size  Type
=========================================================================
default                           8000     818D      18D  CODE  fixed
- - - - - - - - - - - - - - - - - - - - - - - - - - - - - - - - - - - - -

No errors found.
